; Function Attrs: nounwind uwtable
define internal fastcc range(i32 0, 2) i32 @Abc_NtkMaxFlowBwdPath2_rec(ptr noundef %0) unnamed_addr #0 {
  %.val2.i = load ptr, ptr %0, align 8
  %2 = getelementptr i8, ptr %0, i64 16
  %.val3.i = load i32, ptr %2, align 8
  %3 = getelementptr inbounds nuw i8, ptr %.val2.i, i64 224
  %4 = add nsw i32 %.val3.i, 1
  tail call fastcc void @Vec_IntFillExtra(ptr noundef nonnull %3, i32 noundef %4)
  %5 = getelementptr i8, ptr %.val2.i, i64 232
  %.val.i.i.i = load ptr, ptr %5, align 8
  %6 = sext i32 %.val3.i to i64
  %7 = getelementptr inbounds i32, ptr %.val.i.i.i, i64 %6
  %8 = load i32, ptr %7, align 4
  %.val.i = load ptr, ptr %0, align 8
  %9 = getelementptr inbounds nuw i8, ptr %.val.i, i64 216
  %10 = load i32, ptr %9, align 8
  %.not = icmp eq i32 %8, %10
  br i1 %.not, label %.critedge, label %11

11:                                               ; preds = %1
  %.val34 = load i32, ptr %2, align 8
  %12 = getelementptr inbounds nuw i8, ptr %.val.i, i64 224
  %13 = add nsw i32 %.val34, 1
  tail call fastcc void @Vec_IntFillExtra(ptr noundef nonnull %12, i32 noundef %13)
  %14 = getelementptr i8, ptr %.val.i, i64 232
  %.val.i.i.i42 = load ptr, ptr %14, align 8
  %15 = sext i32 %.val34 to i64
  %16 = getelementptr inbounds i32, ptr %.val.i.i.i42, i64 %15
  store i32 %10, ptr %16, align 4
  %17 = getelementptr i8, ptr %0, i64 64
  %.val35 = load ptr, ptr %17, align 8
  %.not29 = icmp eq ptr %.val35, null
  br i1 %.not29, label %18, label %39

18:                                               ; preds = %11
  %19 = getelementptr inbounds nuw i8, ptr %0, i64 20
  %20 = load i32, ptr %19, align 4
  %21 = and i32 %20, 16
  %.not30 = icmp eq i32 %21, 0
  br i1 %.not30, label %.preheader, label %25

.preheader:                                       ; preds = %18
  %22 = getelementptr i8, ptr %0, i64 28
  %.val3651 = load i32, ptr %22, align 4
  %23 = icmp sgt i32 %.val3651, 0
  br i1 %23, label %.lr.ph53, label %.critedge

.lr.ph53:                                         ; preds = %.preheader
  %24 = getelementptr i8, ptr %0, i64 32
  br label %29

25:                                               ; preds = %18
  store ptr inttoptr (i64 1 to ptr), ptr %17, align 8
  br label %.critedge

26:                                               ; preds = %29
  %indvars.iv.next62 = add nuw nsw i64 %indvars.iv61, 1
  %.val36 = load i32, ptr %22, align 4
  %27 = sext i32 %.val36 to i64
  %28 = icmp slt i64 %indvars.iv.next62, %27
  br i1 %28, label %29, label %.critedge, !llvm.loop !26

29:                                               ; preds = %.lr.ph53, %26
  %indvars.iv61 = phi i64 [ 0, %.lr.ph53 ], [ %indvars.iv.next62, %26 ]
  %.val38 = load ptr, ptr %0, align 8
  %.val39 = load ptr, ptr %24, align 8
  %30 = getelementptr i8, ptr %.val38, i64 32
  %.val38.val = load ptr, ptr %30, align 8
  %31 = getelementptr i8, ptr %.val38.val, i64 8
  %.val38.val.val = load ptr, ptr %31, align 8
  %32 = getelementptr inbounds nuw i32, ptr %.val39, i64 %indvars.iv61
  %33 = load i32, ptr %32, align 4
  %34 = sext i32 %33 to i64
  %35 = getelementptr inbounds ptr, ptr %.val38.val.val, i64 %34
  %36 = load ptr, ptr %35, align 8
  %37 = tail call fastcc i32 @Abc_NtkMaxFlowBwdPath2_rec(ptr noundef %36)
  %.not31 = icmp eq i32 %37, 0
  br i1 %.not31, label %26, label %38

38:                                               ; preds = %29
  store ptr %36, ptr %17, align 8
  br label %.critedge

39:                                               ; preds = %11
  %40 = getelementptr i8, ptr %0, i64 44
  %.val9.i = load i32, ptr %40, align 4
  %41 = icmp sgt i32 %.val9.i, 0
  br i1 %41, label %.lr.ph.i, label %.critedge

.lr.ph.i:                                         ; preds = %39
  %.val10.i = load ptr, ptr %0, align 8
  %42 = getelementptr i8, ptr %0, i64 48
  %.val11.i = load ptr, ptr %42, align 8
  %43 = getelementptr i8, ptr %.val10.i, i64 32
  %.val10.val.i = load ptr, ptr %43, align 8
  %44 = getelementptr i8, ptr %.val10.val.i, i64 8
  %.val10.val.val.i = load ptr, ptr %44, align 8
  %wide.trip.count.i = zext nneg i32 %.val9.i to i64
  br label %46

45:                                               ; preds = %46
  %indvars.iv.next.i = add nuw nsw i64 %indvars.iv.i, 1
  %exitcond.not.i = icmp eq i64 %indvars.iv.next.i, %wide.trip.count.i
  br i1 %exitcond.not.i, label %.critedge, label %46, !llvm.loop !27

46:                                               ; preds = %45, %.lr.ph.i
  %indvars.iv.i = phi i64 [ 0, %.lr.ph.i ], [ %indvars.iv.next.i, %45 ]
  %47 = getelementptr inbounds nuw i32, ptr %.val11.i, i64 %indvars.iv.i
  %48 = load i32, ptr %47, align 4
  %49 = sext i32 %48 to i64
  %50 = getelementptr inbounds ptr, ptr %.val10.val.val.i, i64 %49
  %51 = load ptr, ptr %50, align 8
  %52 = getelementptr i8, ptr %51, i64 64
  %.val.i43 = load ptr, ptr %52, align 8
  %53 = icmp eq ptr %.val.i43, %0
  br i1 %53, label %Abc_ObjGetFanoutPath.exit.preheader, label %45

Abc_ObjGetFanoutPath.exit.preheader:              ; preds = %46
  %54 = getelementptr i8, ptr %51, i64 64
  %55 = getelementptr i8, ptr %51, i64 28
  %.val3749 = load i32, ptr %55, align 4
  %56 = icmp sgt i32 %.val3749, 0
  br i1 %56, label %.lr.ph, label %.critedge2

.lr.ph:                                           ; preds = %Abc_ObjGetFanoutPath.exit.preheader
  %57 = getelementptr i8, ptr %51, i64 32
  br label %60

Abc_ObjGetFanoutPath.exit:                        ; preds = %60
  %indvars.iv.next = add nuw nsw i64 %indvars.iv, 1
  %.val37 = load i32, ptr %55, align 4
  %58 = sext i32 %.val37 to i64
  %59 = icmp slt i64 %indvars.iv.next, %58
  br i1 %59, label %60, label %.critedge2, !llvm.loop !28

60:                                               ; preds = %.lr.ph, %Abc_ObjGetFanoutPath.exit
  %indvars.iv = phi i64 [ 0, %.lr.ph ], [ %indvars.iv.next, %Abc_ObjGetFanoutPath.exit ]
  %.val40 = load ptr, ptr %51, align 8
  %.val41 = load ptr, ptr %57, align 8
  %61 = getelementptr i8, ptr %.val40, i64 32
  %.val40.val = load ptr, ptr %61, align 8
  %62 = getelementptr i8, ptr %.val40.val, i64 8
  %.val40.val.val = load ptr, ptr %62, align 8
  %63 = getelementptr inbounds nuw i32, ptr %.val41, i64 %indvars.iv
  %64 = load i32, ptr %63, align 4
  %65 = sext i32 %64 to i64
  %66 = getelementptr inbounds ptr, ptr %.val40.val.val, i64 %65
  %67 = load ptr, ptr %66, align 8
  %68 = tail call fastcc i32 @Abc_NtkMaxFlowBwdPath2_rec(ptr noundef %67)
  %.not33 = icmp eq i32 %68, 0
  br i1 %.not33, label %Abc_ObjGetFanoutPath.exit, label %69

69:                                               ; preds = %60
  store ptr %67, ptr %54, align 8
  br label %.critedge

.critedge2:                                       ; preds = %Abc_ObjGetFanoutPath.exit, %Abc_ObjGetFanoutPath.exit.preheader
  %70 = tail call fastcc i32 @Abc_NtkMaxFlowBwdPath2_rec(ptr noundef nonnull %51)
  %.not32 = icmp eq i32 %70, 0
  br i1 %.not32, label %.critedge, label %71

71:                                               ; preds = %.critedge2
  store ptr null, ptr %54, align 8
  br label %.critedge

.critedge:                                        ; preds = %45, %26, %.preheader, %39, %.critedge2, %1, %71, %69, %38, %25
  %.027 = phi i32 [ 1, %69 ], [ 1, %71 ], [ 1, %25 ], [ 1, %38 ], [ 0, %1 ], [ 0, %.critedge2 ], [ 0, %39 ], [ 0, %.preheader ], [ 0, %26 ], [ 0, %45 ]
  ret i32 %.027
}